target datalayout = "e-m:e-p270:32:32-p271:32:32-p272:64:64-i64:64-i128:128-f80:128-n8:16:32:64-S128"
target triple = "x86_64-pc-linux-gnu"

%struct.jpeg_compress_struct = type { ptr, ptr, ptr, ptr, i32, i32, ptr, i32, i32, i32, i32, double, i32, i32, i32, ptr, [4 x ptr], [4 x ptr], [4 x ptr], [16 x i8], [16 x i8], [16 x i8], i32, ptr, i32, i32, i32, i32, i32, i32, i32, i32, i32, i8, i8, i8, i16, i16, i32, i32, i32, i32, i32, i32, i32, [4 x ptr], i32, i32, i32, [10 x i32], i32, i32, i32, i32, ptr, ptr, ptr, ptr, ptr, ptr, ptr, ptr, ptr, ptr, i32 }
%struct.jpeg_error_mgr = type { ptr, ptr, ptr, ptr, ptr, i32, %union.anon, i32, i64, ptr, i32, ptr, i32, i32 }
%union.anon = type { [8 x i32], [48 x i8] }
%struct.jpeg_destination_mgr = type { ptr, i64, ptr, ptr, ptr }

; Function Attrs: nounwind uwtable
define internal void @emit_byte(ptr noundef %0, i32 noundef %1) #0 {
  %3 = alloca ptr, align 8
  %4 = alloca i32, align 4
  %5 = alloca ptr, align 8
  store ptr %0, ptr %3, align 8, !tbaa !3
  store i32 %1, ptr %4, align 4, !tbaa !43
  call void @llvm.lifetime.start.p0(i64 8, ptr %5) #2
  %6 = load ptr, ptr %3, align 8, !tbaa !3
  %7 = getelementptr inbounds nuw %struct.jpeg_compress_struct, ptr %6, i32 0, i32 6
  %8 = load ptr, ptr %7, align 8, !tbaa !79
  store ptr %8, ptr %5, align 8, !tbaa !80
  %9 = load i32, ptr %4, align 4, !tbaa !43
  %10 = trunc i32 %9 to i8
  %11 = load ptr, ptr %5, align 8, !tbaa !80
  %12 = getelementptr inbounds nuw %struct.jpeg_destination_mgr, ptr %11, i32 0, i32 0
  %13 = load ptr, ptr %12, align 8, !tbaa !81
  %14 = getelementptr inbounds nuw i8, ptr %13, i32 1
  store ptr %14, ptr %12, align 8, !tbaa !81
  store i8 %10, ptr %13, align 1, !tbaa !84
  %15 = load ptr, ptr %5, align 8, !tbaa !80
  %16 = getelementptr inbounds nuw %struct.jpeg_destination_mgr, ptr %15, i32 0, i32 1
  %17 = load i64, ptr %16, align 8, !tbaa !85
  %18 = add i64 %17, -1
  store i64 %18, ptr %16, align 8, !tbaa !85
  %19 = icmp eq i64 %18, 0
  br i1 %19, label %20, label %39

20:                                               ; preds = %2
  %21 = load ptr, ptr %5, align 8, !tbaa !80
  %22 = getelementptr inbounds nuw %struct.jpeg_destination_mgr, ptr %21, i32 0, i32 3
  %23 = load ptr, ptr %22, align 8, !tbaa !86
  %24 = load ptr, ptr %3, align 8, !tbaa !3
  %25 = call i32 %23(ptr noundef %24)
  %26 = icmp ne i32 %25, 0
  br i1 %26, label %38, label %27

27:                                               ; preds = %20
  %28 = load ptr, ptr %3, align 8, !tbaa !3
  %29 = getelementptr inbounds nuw %struct.jpeg_compress_struct, ptr %28, i32 0, i32 0
  %30 = load ptr, ptr %29, align 8, !tbaa !59
  %31 = getelementptr inbounds nuw %struct.jpeg_error_mgr, ptr %30, i32 0, i32 5
  store i32 24, ptr %31, align 8, !tbaa !60
  %32 = load ptr, ptr %3, align 8, !tbaa !3
  %33 = getelementptr inbounds nuw %struct.jpeg_compress_struct, ptr %32, i32 0, i32 0
  %34 = load ptr, ptr %33, align 8, !tbaa !59
  %35 = getelementptr inbounds nuw %struct.jpeg_error_mgr, ptr %34, i32 0, i32 0
  %36 = load ptr, ptr %35, align 8, !tbaa !72
  %37 = load ptr, ptr %3, align 8, !tbaa !3
  call void %36(ptr noundef %37)
  br label %38

38:                                               ; preds = %27, %20
  br label %39

39:                                               ; preds = %38, %2
  call void @llvm.lifetime.end.p0(i64 8, ptr %5) #2
  ret void
}

; Function Attrs: nounwind uwtable
define internal void @emit_2bytes(ptr noundef %0, i32 noundef %1) #0 {
  %3 = alloca ptr, align 8
  %4 = alloca i32, align 4
  store ptr %0, ptr %3, align 8, !tbaa !3
  store i32 %1, ptr %4, align 4, !tbaa !43
  %5 = load ptr, ptr %3, align 8, !tbaa !3
  %6 = load i32, ptr %4, align 4, !tbaa !43
  %7 = ashr i32 %6, 8
  %8 = and i32 %7, 255
  call void @emit_byte(ptr noundef %5, i32 noundef %8)
  %9 = load ptr, ptr %3, align 8, !tbaa !3
  %10 = load i32, ptr %4, align 4, !tbaa !43
  %11 = and i32 %10, 255
  call void @emit_byte(ptr noundef %9, i32 noundef %11)
  ret void
}

; Function Attrs: nounwind uwtable
define internal void @emit_marker(ptr noundef %0, i32 noundef %1) #0 {
  %3 = alloca ptr, align 8
  %4 = alloca i32, align 4
  store ptr %0, ptr %3, align 8, !tbaa !3
  store i32 %1, ptr %4, align 4, !tbaa !43
  %5 = load ptr, ptr %3, align 8, !tbaa !3
  call void @emit_byte(ptr noundef %5, i32 noundef 255)
  %6 = load ptr, ptr %3, align 8, !tbaa !3
  %7 = load i32, ptr %4, align 4, !tbaa !43
  call void @emit_byte(ptr noundef %6, i32 noundef %7)
  ret void
}

; Function Attrs: nounwind uwtable
define internal void @write_marker_header(ptr noundef %0, i32 noundef %1, i32 noundef %2) #0 {
  %4 = alloca ptr, align 8
  %5 = alloca i32, align 4
  %6 = alloca i32, align 4
  store ptr %0, ptr %4, align 8, !tbaa !3
  store i32 %1, ptr %5, align 4, !tbaa !43
  store i32 %2, ptr %6, align 4, !tbaa !43
  %7 = load i32, ptr %6, align 4, !tbaa !43
  %8 = icmp ugt i32 %7, 65533
  br i1 %8, label %9, label %20

9:                                                ; preds = %3
  %10 = load ptr, ptr %4, align 8, !tbaa !3
  %11 = getelementptr inbounds nuw %struct.jpeg_compress_struct, ptr %10, i32 0, i32 0
  %12 = load ptr, ptr %11, align 8, !tbaa !59
  %13 = getelementptr inbounds nuw %struct.jpeg_error_mgr, ptr %12, i32 0, i32 5
  store i32 11, ptr %13, align 8, !tbaa !60
  %14 = load ptr, ptr %4, align 8, !tbaa !3
  %15 = getelementptr inbounds nuw %struct.jpeg_compress_struct, ptr %14, i32 0, i32 0
  %16 = load ptr, ptr %15, align 8, !tbaa !59
  %17 = getelementptr inbounds nuw %struct.jpeg_error_mgr, ptr %16, i32 0, i32 0
  %18 = load ptr, ptr %17, align 8, !tbaa !72
  %19 = load ptr, ptr %4, align 8, !tbaa !3
  call void %18(ptr noundef %19)
  br label %20

20:                                               ; preds = %9, %3
  %21 = load ptr, ptr %4, align 8, !tbaa !3
  %22 = load i32, ptr %5, align 4, !tbaa !43
  call void @emit_marker(ptr noundef %21, i32 noundef %22)
  %23 = load ptr, ptr %4, align 8, !tbaa !3
  %24 = load i32, ptr %6, align 4, !tbaa !43
  %25 = add i32 %24, 2
  call void @emit_2bytes(ptr noundef %23, i32 noundef %25)
  ret void
}