; Function Attrs: nounwind uwtable
define internal void @write_marker_header(ptr noundef %0, i32 noundef %1, i32 noundef %2) #0 {
  %4 = icmp ugt i32 %2, 65533
  br i1 %4, label %5, label %9

5:                                                ; preds = %3
  %6 = load ptr, ptr %0, align 8, !tbaa !45
  %7 = getelementptr inbounds nuw i8, ptr %6, i64 40
  store i32 11, ptr %7, align 8, !tbaa !46
  %8 = load ptr, ptr %6, align 8, !tbaa !49
  tail call void %8(ptr noundef nonnull %0) #3
  br label %9

9:                                                ; preds = %5, %3
  %10 = getelementptr inbounds nuw i8, ptr %0, i64 40
  %11 = load ptr, ptr %10, align 8, !tbaa !38
  %12 = load ptr, ptr %11, align 8, !tbaa !39
  %13 = getelementptr inbounds nuw i8, ptr %12, i64 1
  store ptr %13, ptr %11, align 8, !tbaa !39
  store i8 -1, ptr %12, align 1, !tbaa !42
  %14 = getelementptr inbounds nuw i8, ptr %11, i64 8
  %15 = load i64, ptr %14, align 8, !tbaa !43
  %16 = add i64 %15, -1
  store i64 %16, ptr %14, align 8, !tbaa !43
  %17 = icmp eq i64 %16, 0
  br i1 %17, label %18, label %emit_byte.exit.i

18:                                               ; preds = %9
  %19 = getelementptr inbounds nuw i8, ptr %11, i64 24
  %20 = load ptr, ptr %19, align 8, !tbaa !44
  %21 = tail call i32 %20(ptr noundef nonnull %0) #3
  %.not.i.i = icmp eq i32 %21, 0
  br i1 %.not.i.i, label %22, label %emit_byte.exit.i

22:                                               ; preds = %18
  %23 = load ptr, ptr %0, align 8, !tbaa !45
  %24 = getelementptr inbounds nuw i8, ptr %23, i64 40
  store i32 24, ptr %24, align 8, !tbaa !46
  %25 = load ptr, ptr %23, align 8, !tbaa !49
  tail call void %25(ptr noundef nonnull %0) #3
  br label %emit_byte.exit.i

emit_byte.exit.i:                                 ; preds = %22, %18, %9
  %26 = load ptr, ptr %10, align 8, !tbaa !38
  %27 = trunc i32 %1 to i8
  %28 = load ptr, ptr %26, align 8, !tbaa !39
  %29 = getelementptr inbounds nuw i8, ptr %28, i64 1
  store ptr %29, ptr %26, align 8, !tbaa !39
  store i8 %27, ptr %28, align 1, !tbaa !42
  %30 = getelementptr inbounds nuw i8, ptr %26, i64 8
  %31 = load i64, ptr %30, align 8, !tbaa !43
  %32 = add i64 %31, -1
  store i64 %32, ptr %30, align 8, !tbaa !43
  %33 = icmp eq i64 %32, 0
  br i1 %33, label %34, label %emit_marker.exit

34:                                               ; preds = %emit_byte.exit.i
  %35 = getelementptr inbounds nuw i8, ptr %26, i64 24
  %36 = load ptr, ptr %35, align 8, !tbaa !44
  %37 = tail call i32 %36(ptr noundef nonnull %0) #3
  %.not.i2.i = icmp eq i32 %37, 0
  br i1 %.not.i2.i, label %38, label %emit_marker.exit

38:                                               ; preds = %34
  %39 = load ptr, ptr %0, align 8, !tbaa !45
  %40 = getelementptr inbounds nuw i8, ptr %39, i64 40
  store i32 24, ptr %40, align 8, !tbaa !46
  %41 = load ptr, ptr %39, align 8, !tbaa !49
  tail call void %41(ptr noundef nonnull %0) #3
  br label %emit_marker.exit

emit_marker.exit:                                 ; preds = %emit_byte.exit.i, %34, %38
  %42 = add i32 %2, 2
  %43 = lshr i32 %42, 8
  %44 = load ptr, ptr %10, align 8, !tbaa !38
  %45 = trunc i32 %43 to i8
  %46 = load ptr, ptr %44, align 8, !tbaa !39
  %47 = getelementptr inbounds nuw i8, ptr %46, i64 1
  store ptr %47, ptr %44, align 8, !tbaa !39
  store i8 %45, ptr %46, align 1, !tbaa !42
  %48 = getelementptr inbounds nuw i8, ptr %44, i64 8
  %49 = load i64, ptr %48, align 8, !tbaa !43
  %50 = add i64 %49, -1
  store i64 %50, ptr %48, align 8, !tbaa !43
  %51 = icmp eq i64 %50, 0
  br i1 %51, label %52, label %emit_byte.exit.i7

52:                                               ; preds = %emit_marker.exit
  %53 = getelementptr inbounds nuw i8, ptr %44, i64 24
  %54 = load ptr, ptr %53, align 8, !tbaa !44
  %55 = tail call i32 %54(ptr noundef nonnull %0) #3
  %.not.i.i8 = icmp eq i32 %55, 0
  br i1 %.not.i.i8, label %56, label %emit_byte.exit.i7

56:                                               ; preds = %52
  %57 = load ptr, ptr %0, align 8, !tbaa !45
  %58 = getelementptr inbounds nuw i8, ptr %57, i64 40
  store i32 24, ptr %58, align 8, !tbaa !46
  %59 = load ptr, ptr %57, align 8, !tbaa !49
  tail call void %59(ptr noundef nonnull %0) #3
  br label %emit_byte.exit.i7

emit_byte.exit.i7:                                ; preds = %56, %52, %emit_marker.exit
  %60 = load ptr, ptr %10, align 8, !tbaa !38
  %61 = trunc i32 %42 to i8
  %62 = load ptr, ptr %60, align 8, !tbaa !39
  %63 = getelementptr inbounds nuw i8, ptr %62, i64 1
  store ptr %63, ptr %60, align 8, !tbaa !39
  store i8 %61, ptr %62, align 1, !tbaa !42
  %64 = getelementptr inbounds nuw i8, ptr %60, i64 8
  %65 = load i64, ptr %64, align 8, !tbaa !43
  %66 = add i64 %65, -1
  store i64 %66, ptr %64, align 8, !tbaa !43
  %67 = icmp eq i64 %66, 0
  br i1 %67, label %68, label %emit_2bytes.exit

68:                                               ; preds = %emit_byte.exit.i7
  %69 = getelementptr inbounds nuw i8, ptr %60, i64 24
  %70 = load ptr, ptr %69, align 8, !tbaa !44
  %71 = tail call i32 %70(ptr noundef nonnull %0) #3
  %.not.i3.i = icmp eq i32 %71, 0
  br i1 %.not.i3.i, label %72, label %emit_2bytes.exit

72:                                               ; preds = %68
  %73 = load ptr, ptr %0, align 8, !tbaa !45
  %74 = getelementptr inbounds nuw i8, ptr %73, i64 40
  store i32 24, ptr %74, align 8, !tbaa !46
  %75 = load ptr, ptr %73, align 8, !tbaa !49
  tail call void %75(ptr noundef nonnull %0) #3
  br label %emit_2bytes.exit

emit_2bytes.exit:                                 ; preds = %emit_byte.exit.i7, %68, %72
  ret void
}